target datalayout = "e-m:e-p270:32:32-p271:32:32-p272:64:64-i64:64-i128:128-f80:128-n8:16:32:64-S128"
target triple = "x86_64-pc-linux-gnu"

%"struct.rocksdb::PerfContext" = type <{ %"struct.rocksdb::PerfContextBase", ptr, i8, [7 x i8] }>
%"struct.rocksdb::PerfContextBase" = type { i64, i64, i64, i64, i64, i64, i64, i64, i64, i64, i64, i64, i64, i64, i64, i64, i64, i64, i64, i64, i64, i64, i64, i64, i64, i64, i64, i64, i64, i64, i64, i64, i64, i64, i64, i64, i64, i64, i64, i64, i64, i64, i64, i64, i64, i64, i64, i64, i64, i64, i64, i64, i64, i64, i64, i64, i64, i64, i64, i64, i64, i64, i64, i64, i64, i64, i64, i64, i64, i64, i64, i64, i64, i64, i64, i64, i64, i64, i64, i64, i64, i64, i64, i64, i64, i64, i64, i64, i64, i64, i64, i64, i64, i64, i64, i64, i64, i64, i64, i64, i64, i64, i64, i64, i64, i64, i64 }
%"class.rocksdb::UserComparatorWrapper" = type { ptr }
%"class.rocksdb::Slice" = type { ptr, i64 }
%"struct.rocksdb::ParsedInternalKey" = type <{ %"class.rocksdb::Slice", i64, i8, [7 x i8] }>
%"class.rocksdb::CompareInterface" = type { ptr }
%"class.rocksdb::InternalKeyComparator" = type { %"class.rocksdb::CompareInterface", %"class.rocksdb::UserComparatorWrapper" }

@_ZN7rocksdb10perf_levelE = external thread_local global i8, align 1
@_ZN7rocksdb12perf_contextE = external thread_local global %"struct.rocksdb::PerfContext", align 8

; Function Attrs: uwtable
define linkonce_odr hidden noundef ptr @_ZTWN7rocksdb12perf_contextE() #10 comdat {
  %1 = icmp ne ptr @_ZTHN7rocksdb12perf_contextE, null
  br i1 %1, label %2, label %3

2:                                                ; preds = %0
  call void @_ZTHN7rocksdb12perf_contextE()
  br label %3

3:                                                ; preds = %2, %0
  %4 = call align 8 ptr @llvm.threadlocal.address.p0(ptr align 8 @_ZN7rocksdb12perf_contextE)
  ret ptr %4
}

; Function Attrs: uwtable
define linkonce_odr hidden noundef ptr @_ZTWN7rocksdb10perf_levelE() #10 comdat {
  %1 = icmp ne ptr @_ZTHN7rocksdb10perf_levelE, null
  br i1 %1, label %2, label %3

2:                                                ; preds = %0
  call void @_ZTHN7rocksdb10perf_levelE()
  br label %3

3:                                                ; preds = %2, %0
  %4 = call align 1 ptr @llvm.threadlocal.address.p0(ptr align 1 @_ZN7rocksdb10perf_levelE)
  ret ptr %4
}

; Function Attrs: mustprogress uwtable
define linkonce_odr noundef i32 @_ZNK7rocksdb21UserComparatorWrapper7CompareERKNS_5SliceES3_(ptr noundef nonnull align 8 dereferenceable(8) %0, ptr noundef nonnull align 8 dereferenceable(16) %1, ptr noundef nonnull align 8 dereferenceable(16) %2) #3 comdat align 2 {
  %4 = alloca ptr, align 8
  %5 = alloca ptr, align 8
  %6 = alloca ptr, align 8
  store ptr %0, ptr %4, align 8, !tbaa !10
  store ptr %1, ptr %5, align 8, !tbaa !13
  store ptr %2, ptr %6, align 8, !tbaa !13
  %7 = load ptr, ptr %4, align 8
  %8 = call ptr @_ZTWN7rocksdb10perf_levelE()
  %9 = load i8, ptr %8, align 1, !tbaa !15
  %10 = zext i8 %9 to i32
  %11 = icmp sge i32 %10, 2
  br i1 %11, label %12, label %17

12:                                               ; preds = %3
  %13 = call ptr @_ZTWN7rocksdb12perf_contextE()
  %14 = getelementptr inbounds nuw %"struct.rocksdb::PerfContextBase", ptr %13, i32 0, i32 0
  %15 = load i64, ptr %14, align 8, !tbaa !17
  %16 = add i64 %15, 1
  store i64 %16, ptr %14, align 8, !tbaa !17
  br label %17

17:                                               ; preds = %12, %3
  %18 = getelementptr inbounds nuw %"class.rocksdb::UserComparatorWrapper", ptr %7, i32 0, i32 0
  %19 = load ptr, ptr %18, align 8, !tbaa !19
  %20 = getelementptr inbounds i8, ptr %19, i64 32
  %21 = load ptr, ptr %5, align 8, !tbaa !13
  %22 = load ptr, ptr %6, align 8, !tbaa !13
  %23 = load ptr, ptr %20, align 8, !tbaa !22
  %24 = getelementptr inbounds ptr, ptr %23, i64 2
  %25 = load ptr, ptr %24, align 8
  %26 = call noundef i32 %25(ptr noundef nonnull align 8 dereferenceable(8) %20, ptr noundef nonnull align 8 dereferenceable(16) %21, ptr noundef nonnull align 8 dereferenceable(16) %22)
  ret i32 %26
}

; Function Attrs: mustprogress uwtable
define noundef i32 @_ZNK7rocksdb21InternalKeyComparator7CompareERKNS_17ParsedInternalKeyES3_(ptr noundef nonnull align 8 dereferenceable(16) %0, ptr noundef nonnull align 8 dereferenceable(25) %1, ptr noundef nonnull align 8 dereferenceable(25) %2) #3 align 2 {
  %4 = alloca ptr, align 8
  %5 = alloca ptr, align 8
  %6 = alloca ptr, align 8
  %7 = alloca i32, align 4
  store ptr %0, ptr %4, align 8, !tbaa !61
  store ptr %1, ptr %5, align 8, !tbaa !31
  store ptr %2, ptr %6, align 8, !tbaa !31
  %8 = load ptr, ptr %4, align 8
  call void @llvm.lifetime.start.p0(i64 4, ptr %7) #6
  %9 = getelementptr inbounds nuw %"class.rocksdb::InternalKeyComparator", ptr %8, i32 0, i32 1
  %10 = load ptr, ptr %5, align 8, !tbaa !31
  %11 = getelementptr inbounds nuw %"struct.rocksdb::ParsedInternalKey", ptr %10, i32 0, i32 0
  %12 = load ptr, ptr %6, align 8, !tbaa !31
  %13 = getelementptr inbounds nuw %"struct.rocksdb::ParsedInternalKey", ptr %12, i32 0, i32 0
  %14 = call noundef i32 @_ZNK7rocksdb21UserComparatorWrapper7CompareERKNS_5SliceES3_(ptr noundef nonnull align 8 dereferenceable(8) %9, ptr noundef nonnull align 8 dereferenceable(16) %11, ptr noundef nonnull align 8 dereferenceable(16) %13)
  store i32 %14, ptr %7, align 4, !tbaa !55
  %15 = load i32, ptr %7, align 4, !tbaa !55
  %16 = icmp eq i32 %15, 0
  br i1 %16, label %17, label %61

17:                                               ; preds = %3
  %18 = load ptr, ptr %5, align 8, !tbaa !31
  %19 = getelementptr inbounds nuw %"struct.rocksdb::ParsedInternalKey", ptr %18, i32 0, i32 1
  %20 = load i64, ptr %19, align 8, !tbaa !33
  %21 = load ptr, ptr %6, align 8, !tbaa !31
  %22 = getelementptr inbounds nuw %"struct.rocksdb::ParsedInternalKey", ptr %21, i32 0, i32 1
  %23 = load i64, ptr %22, align 8, !tbaa !33
  %24 = icmp ugt i64 %20, %23
  br i1 %24, label %25, label %26

25:                                               ; preds = %17
  store i32 -1, ptr %7, align 4, !tbaa !55
  br label %60

26:                                               ; preds = %17
  %27 = load ptr, ptr %5, align 8, !tbaa !31
  %28 = getelementptr inbounds nuw %"struct.rocksdb::ParsedInternalKey", ptr %27, i32 0, i32 1
  %29 = load i64, ptr %28, align 8, !tbaa !33
  %30 = load ptr, ptr %6, align 8, !tbaa !31
  %31 = getelementptr inbounds nuw %"struct.rocksdb::ParsedInternalKey", ptr %30, i32 0, i32 1
  %32 = load i64, ptr %31, align 8, !tbaa !33
  %33 = icmp ult i64 %29, %32
  br i1 %33, label %34, label %35

34:                                               ; preds = %26
  store i32 1, ptr %7, align 4, !tbaa !55
  br label %59

35:                                               ; preds = %26
  %36 = load ptr, ptr %5, align 8, !tbaa !31
  %37 = getelementptr inbounds nuw %"struct.rocksdb::ParsedInternalKey", ptr %36, i32 0, i32 2
  %38 = load i8, ptr %37, align 8, !tbaa !35
  %39 = zext i8 %38 to i32
  %40 = load ptr, ptr %6, align 8, !tbaa !31
  %41 = getelementptr inbounds nuw %"struct.rocksdb::ParsedInternalKey", ptr %40, i32 0, i32 2
  %42 = load i8, ptr %41, align 8, !tbaa !35
  %43 = zext i8 %42 to i32
  %44 = icmp sgt i32 %39, %43
  br i1 %44, label %45, label %46

45:                                               ; preds = %35
  store i32 -1, ptr %7, align 4, !tbaa !55
  br label %58

46:                                               ; preds = %35
  %47 = load ptr, ptr %5, align 8, !tbaa !31
  %48 = getelementptr inbounds nuw %"struct.rocksdb::ParsedInternalKey", ptr %47, i32 0, i32 2
  %49 = load i8, ptr %48, align 8, !tbaa !35
  %50 = zext i8 %49 to i32
  %51 = load ptr, ptr %6, align 8, !tbaa !31
  %52 = getelementptr inbounds nuw %"struct.rocksdb::ParsedInternalKey", ptr %51, i32 0, i32 2
  %53 = load i8, ptr %52, align 8, !tbaa !35
  %54 = zext i8 %53 to i32
  %55 = icmp slt i32 %50, %54
  br i1 %55, label %56, label %57

56:                                               ; preds = %46
  store i32 1, ptr %7, align 4, !tbaa !55
  br label %57

57:                                               ; preds = %56, %46
  br label %58

58:                                               ; preds = %57, %45
  br label %59

59:                                               ; preds = %58, %34
  br label %60

60:                                               ; preds = %59, %25
  br label %61

61:                                               ; preds = %60, %3
  %62 = load i32, ptr %7, align 4, !tbaa !55
  call void @llvm.lifetime.end.p0(i64 4, ptr %7) #6
  ret i32 %62
}