; Function Attrs: uwtable
define noundef i32 @_ZNK7rocksdb21InternalKeyComparator7CompareERKNS_17ParsedInternalKeyES3_(ptr noundef nonnull readonly align 8 captures(none) dereferenceable(16) %0, ptr noundef nonnull align 8 dereferenceable(25) %1, ptr noundef nonnull align 8 dereferenceable(25) %2) local_unnamed_addr #8 align 2 {
  %4 = getelementptr inbounds nuw i8, ptr %0, i64 8
  %.not.i.i = icmp eq ptr @_ZTHN7rocksdb10perf_levelE, null
  br i1 %.not.i.i, label %_ZTWN7rocksdb10perf_levelE.exit.i, label %5

5:                                                ; preds = %3
  tail call void @_ZTHN7rocksdb10perf_levelE()
  br label %_ZTWN7rocksdb10perf_levelE.exit.i

_ZTWN7rocksdb10perf_levelE.exit.i:                ; preds = %5, %3
  %6 = tail call noundef align 1 ptr @llvm.threadlocal.address.p0(ptr align 1 @_ZN7rocksdb10perf_levelE)
  %7 = load i8, ptr %6, align 1, !tbaa !78
  %8 = icmp ugt i8 %7, 1
  br i1 %8, label %9, label %_ZNK7rocksdb21UserComparatorWrapper7CompareERKNS_5SliceES3_.exit

9:                                                ; preds = %_ZTWN7rocksdb10perf_levelE.exit.i
  %.not.i3.i = icmp eq ptr @_ZTHN7rocksdb12perf_contextE, null
  br i1 %.not.i3.i, label %_ZTWN7rocksdb12perf_contextE.exit.i, label %10

10:                                               ; preds = %9
  tail call void @_ZTHN7rocksdb12perf_contextE()
  br label %_ZTWN7rocksdb12perf_contextE.exit.i

_ZTWN7rocksdb12perf_contextE.exit.i:              ; preds = %10, %9
  %11 = tail call noundef align 8 ptr @llvm.threadlocal.address.p0(ptr align 8 @_ZN7rocksdb12perf_contextE)
  %12 = load i64, ptr %11, align 8, !tbaa !80
  %13 = add i64 %12, 1
  store i64 %13, ptr %11, align 8, !tbaa !80
  br label %_ZNK7rocksdb21UserComparatorWrapper7CompareERKNS_5SliceES3_.exit

_ZNK7rocksdb21UserComparatorWrapper7CompareERKNS_5SliceES3_.exit: ; preds = %_ZTWN7rocksdb10perf_levelE.exit.i, %_ZTWN7rocksdb12perf_contextE.exit.i
  %14 = load ptr, ptr %4, align 8, !tbaa !82
  %15 = getelementptr inbounds nuw i8, ptr %14, i64 32
  %16 = load ptr, ptr %15, align 8, !tbaa !35
  %17 = getelementptr inbounds nuw i8, ptr %16, i64 16
  %18 = load ptr, ptr %17, align 8
  %19 = tail call noundef i32 %18(ptr noundef nonnull align 8 dereferenceable(8) %15, ptr noundef nonnull align 8 dereferenceable(16) %1, ptr noundef nonnull align 8 dereferenceable(16) %2)
  %20 = icmp eq i32 %19, 0
  br i1 %20, label %21, label %37

21:                                               ; preds = %_ZNK7rocksdb21UserComparatorWrapper7CompareERKNS_5SliceES3_.exit
  %22 = getelementptr inbounds nuw i8, ptr %1, i64 16
  %23 = load i64, ptr %22, align 8, !tbaa !15
  %24 = getelementptr inbounds nuw i8, ptr %2, i64 16
  %25 = load i64, ptr %24, align 8, !tbaa !15
  %26 = icmp ugt i64 %23, %25
  br i1 %26, label %37, label %27

27:                                               ; preds = %21
  %28 = icmp ult i64 %23, %25
  br i1 %28, label %37, label %29

29:                                               ; preds = %27
  %30 = getelementptr inbounds nuw i8, ptr %1, i64 24
  %31 = load i8, ptr %30, align 8, !tbaa !18
  %32 = getelementptr inbounds nuw i8, ptr %2, i64 24
  %33 = load i8, ptr %32, align 8, !tbaa !18
  %34 = icmp ugt i8 %31, %33
  br i1 %34, label %37, label %35

35:                                               ; preds = %29
  %36 = icmp ult i8 %31, %33
  %spec.select = zext i1 %36 to i32
  br label %37

37:                                               ; preds = %35, %29, %27, %21, %_ZNK7rocksdb21UserComparatorWrapper7CompareERKNS_5SliceES3_.exit
  %.0 = phi i32 [ %19, %_ZNK7rocksdb21UserComparatorWrapper7CompareERKNS_5SliceES3_.exit ], [ -1, %21 ], [ 1, %27 ], [ -1, %29 ], [ %spec.select, %35 ]
  ret i32 %.0
}